target datalayout = "e-m:e-p270:32:32-p271:32:32-p272:64:64-i64:64-i128:128-f80:128-n8:16:32:64-S128"
target triple = "x86_64-pc-linux-gnu"

%struct.VacAttrStats = type { i32, i32, i32, ptr, i32, ptr, ptr, i32, ptr, i8, float, i32, float, [5 x i16], [5 x i32], [5 x i32], [5 x i32], [5 x ptr], [5 x i32], [5 x ptr], [5 x i32], [5 x i16], [5 x i8], [5 x i8], i32, ptr, ptr, ptr, ptr, i32 }

; Function Attrs: nounwind uwtable
define internal i64 @expr_fetch_func(ptr noundef %0, i32 noundef %1, ptr noundef %2) #0 {
  %4 = alloca ptr, align 8
  %5 = alloca i32, align 4
  %6 = alloca ptr, align 8
  %7 = alloca i32, align 4
  store ptr %0, ptr %4, align 8
  store i32 %1, ptr %5, align 4
  store ptr %2, ptr %6, align 8
  call void @llvm.lifetime.start.p0(i64 4, ptr %7) #8
  %8 = load i32, ptr %5, align 4
  %9 = load ptr, ptr %4, align 8
  %10 = getelementptr inbounds nuw %struct.VacAttrStats, ptr %9, i32 0, i32 29
  %11 = load i32, ptr %10, align 8
  %12 = mul i32 %8, %11
  store i32 %12, ptr %7, align 4
  %13 = load ptr, ptr %4, align 8
  %14 = getelementptr inbounds nuw %struct.VacAttrStats, ptr %13, i32 0, i32 28
  %15 = load ptr, ptr %14, align 8
  %16 = load i32, ptr %7, align 4
  %17 = sext i32 %16 to i64
  %18 = getelementptr inbounds i8, ptr %15, i64 %17
  %19 = load i8, ptr %18, align 1, !range !6, !noundef !7
  %20 = trunc i8 %19 to i1
  %21 = load ptr, ptr %6, align 8
  %22 = zext i1 %20 to i8
  store i8 %22, ptr %21, align 1
  %23 = load ptr, ptr %4, align 8
  %24 = getelementptr inbounds nuw %struct.VacAttrStats, ptr %23, i32 0, i32 27
  %25 = load ptr, ptr %24, align 8
  %26 = load i32, ptr %7, align 4
  %27 = sext i32 %26 to i64
  %28 = getelementptr inbounds i64, ptr %25, i64 %27
  %29 = load i64, ptr %28, align 8
  call void @llvm.lifetime.end.p0(i64 4, ptr %7) #8
  ret i64 %29
}