; Function Attrs: mustprogress nofree norecurse nosync nounwind willreturn memory(read, argmem: readwrite, inaccessiblemem: none) uwtable
define internal i64 @expr_fetch_func(ptr noundef readonly captures(none) %0, i32 noundef %1, ptr noundef writeonly captures(none) initializes((0, 1)) %2) #6 {
  %4 = getelementptr inbounds nuw i8, ptr %0, i64 336
  %5 = load i32, ptr %4, align 8
  %6 = mul i32 %5, %1
  %7 = getelementptr inbounds nuw i8, ptr %0, i64 328
  %8 = load ptr, ptr %7, align 8
  %9 = sext i32 %6 to i64
  %10 = getelementptr inbounds i8, ptr %8, i64 %9
  %11 = load i8, ptr %10, align 1, !range !8, !noundef !9
  store i8 %11, ptr %2, align 1
  %12 = getelementptr inbounds nuw i8, ptr %0, i64 320
  %13 = load ptr, ptr %12, align 8
  %14 = getelementptr inbounds i64, ptr %13, i64 %9
  %15 = load i64, ptr %14, align 8
  ret i64 %15
}